target datalayout = "e-m:e-p270:32:32-p271:32:32-p272:64:64-i64:64-i128:128-f80:128-n8:16:32:64-S128"
target triple = "x86_64-pc-linux-gnu"

; Function Attrs: mustprogress nounwind uwtable
define internal noundef float @_ZN12_GLOBAL__N_16distL1EPKfS1_i(ptr noundef %0, ptr noundef %1, i32 noundef %2) #3 {
  %4 = alloca ptr, align 8
  %5 = alloca ptr, align 8
  %6 = alloca i32, align 4
  %7 = alloca double, align 8
  %8 = alloca i32, align 4
  %9 = alloca double, align 8
  store ptr %0, ptr %4, align 8
  store ptr %1, ptr %5, align 8
  store i32 %2, ptr %6, align 4
  store double 0.000000e+00, ptr %7, align 8
  store i32 0, ptr %8, align 4
  br label %10

10:                                               ; preds = %31, %3
  %11 = load i32, ptr %8, align 4
  %12 = load i32, ptr %6, align 4
  %13 = icmp slt i32 %11, %12
  br i1 %13, label %14, label %34

14:                                               ; preds = %10
  %15 = load ptr, ptr %4, align 8
  %16 = load i32, ptr %8, align 4
  %17 = sext i32 %16 to i64
  %18 = getelementptr inbounds float, ptr %15, i64 %17
  %19 = load float, ptr %18, align 4
  %20 = load ptr, ptr %5, align 8
  %21 = load i32, ptr %8, align 4
  %22 = sext i32 %21 to i64
  %23 = getelementptr inbounds float, ptr %20, i64 %22
  %24 = load float, ptr %23, align 4
  %25 = fsub float %19, %24
  %26 = fpext float %25 to double
  store double %26, ptr %9, align 8
  %27 = load double, ptr %9, align 8
  %28 = call double @llvm.fabs.f64(double %27)
  %29 = load double, ptr %7, align 8
  %30 = fadd double %29, %28
  store double %30, ptr %7, align 8
  br label %31

31:                                               ; preds = %14
  %32 = load i32, ptr %8, align 4
  %33 = add nsw i32 %32, 1
  store i32 %33, ptr %8, align 4
  br label %10, !llvm.loop !4

34:                                               ; preds = %10
  %35 = load double, ptr %7, align 8
  %36 = fptrunc double %35 to float
  ret float %36
}